target datalayout = "e-m:e-p270:32:32-p271:32:32-p272:64:64-i64:64-i128:128-f80:128-n8:16:32:64-S128"
target triple = "x86_64-pc-linux-gnu"

%struct.pointf_s = type { double, double }
%struct.GVJ_s = type { ptr, ptr, ptr, ptr, ptr, ptr, i32, ptr, ptr, ptr, ptr, i64, i64, ptr, i32, %struct.gvplugin_active_render_s, %struct.gvplugin_active_device_s, %struct.gvplugin_active_loadimage_t, ptr, %struct.pointf_s, i8, ptr, i32, ptr, i8, ptr, i32, i32, i32, %struct.point, %struct.point, %struct.point, %struct.point, %struct.point, i32, %struct.boxf, %struct.pointf_s, %struct.boxf, %struct.boxf, %struct.pointf_s, %struct.pointf_s, double, i32, %struct.pointf_s, %struct.boxf, %struct.pointf_s, %struct.pointf_s, i32, i32, %struct.box, %struct.box, %struct.pointf_s, %struct.pointf_s, %struct.pointf_s, i8, i8, i8, i8, i8, i8, %struct.pointf_s, %struct.pointf_s, ptr, ptr, ptr, ptr, ptr, ptr, i64, ptr }
%struct.gvplugin_active_render_s = type { ptr, i32, ptr, ptr }
%struct.gvplugin_active_device_s = type { ptr, i32, ptr, ptr }
%struct.gvplugin_active_loadimage_t = type { ptr, i32, ptr }
%struct.point = type { i32, i32 }
%struct.boxf = type { %struct.pointf_s, %struct.pointf_s }
%struct.box = type { %struct.point, %struct.point }
%struct.color_s = type { %union.anon, i32 }
%union.anon = type { [4 x double] }
%struct.obj_state_s = type { ptr, i32, %union.anon.0, i32, %struct.color_s, %struct.color_s, %struct.color_s, i32, double, i32, i32, double, ptr, double, double, double, ptr, ptr, ptr, ptr, ptr, ptr, ptr, ptr, ptr, ptr, ptr, ptr, ptr, ptr, ptr, ptr, ptr, i16, i32, i64, ptr, i64, ptr, ptr, i32, ptr, i32, ptr }
%union.anon.0 = type { ptr }

@svg_rgradstyle.rgradId = internal global i32 0, align 4
@.str.104 = private unnamed_addr constant [28 x i8] c"<defs>\0A<radialGradient id=\22\00", align 1
@.str.105 = private unnamed_addr constant [61 x i8] c"r_%d\22 cx=\2250%%\22 cy=\2250%%\22 r=\2275%%\22 fx=\22%.0f%%\22 fy=\22%.0f%%\22>\0A\00", align 1
@.str.106 = private unnamed_addr constant [27 x i8] c"</radialGradient>\0A</defs>\0A\00", align 1

; Function Attrs: nounwind uwtable
define internal i32 @svg_rgradstyle(ptr noundef %0) #0 {
  %2 = alloca ptr, align 8
  %3 = alloca double, align 8
  %4 = alloca double, align 8
  %5 = alloca i32, align 4
  %6 = alloca ptr, align 8
  %7 = alloca double, align 8
  store ptr %0, ptr %2, align 8, !tbaa !3
  call void @llvm.lifetime.start.p0(i64 8, ptr %3) #9
  call void @llvm.lifetime.start.p0(i64 8, ptr %4) #9
  call void @llvm.lifetime.start.p0(i64 4, ptr %5) #9
  %8 = load i32, ptr @svg_rgradstyle.rgradId, align 4, !tbaa !60
  %9 = add nsw i32 %8, 1
  store i32 %9, ptr @svg_rgradstyle.rgradId, align 4, !tbaa !60
  store i32 %8, ptr %5, align 4, !tbaa !60
  call void @llvm.lifetime.start.p0(i64 8, ptr %6) #9
  %10 = load ptr, ptr %2, align 8, !tbaa !3
  %11 = getelementptr inbounds nuw %struct.GVJ_s, ptr %10, i32 0, i32 4
  %12 = load ptr, ptr %11, align 8, !tbaa !50
  store ptr %12, ptr %6, align 8, !tbaa !51
  %13 = load ptr, ptr %6, align 8, !tbaa !51
  %14 = getelementptr inbounds nuw %struct.obj_state_s, ptr %13, i32 0, i32 7
  %15 = load i32, ptr %14, align 8, !tbaa !120
  %16 = icmp eq i32 %15, 0
  br i1 %16, label %17, label %18

17:                                               ; preds = %1
  store double 5.000000e+01, ptr %4, align 8, !tbaa !121
  store double 5.000000e+01, ptr %3, align 8, !tbaa !121
  br label %35

18:                                               ; preds = %1
  call void @llvm.lifetime.start.p0(i64 8, ptr %7) #9
  %19 = load ptr, ptr %6, align 8, !tbaa !51
  %20 = getelementptr inbounds nuw %struct.obj_state_s, ptr %19, i32 0, i32 7
  %21 = load i32, ptr %20, align 8, !tbaa !120
  %22 = sitofp i32 %21 to double
  %23 = fmul double %22, 0x400921FB54442D18
  %24 = fdiv double %23, 1.800000e+02
  store double %24, ptr %7, align 8, !tbaa !121
  %25 = load double, ptr %7, align 8, !tbaa !121
  %26 = call double @cos(double noundef %25) #9, !tbaa !60
  %27 = fadd double 1.000000e+00, %26
  %28 = fmul double 5.000000e+01, %27
  %29 = call double @llvm.round.f64(double %28)
  store double %29, ptr %3, align 8, !tbaa !121
  %30 = load double, ptr %7, align 8, !tbaa !121
  %31 = call double @sin(double noundef %30) #9, !tbaa !60
  %32 = fsub double 1.000000e+00, %31
  %33 = fmul double 5.000000e+01, %32
  %34 = call double @llvm.round.f64(double %33)
  store double %34, ptr %4, align 8, !tbaa !121
  call void @llvm.lifetime.end.p0(i64 8, ptr %7) #9
  br label %35

35:                                               ; preds = %18, %17
  %36 = load ptr, ptr %2, align 8, !tbaa !3
  %37 = call i32 @gvputs(ptr noundef %36, ptr noundef @.str.104)
  %38 = load ptr, ptr %6, align 8, !tbaa !51
  %39 = getelementptr inbounds nuw %struct.obj_state_s, ptr %38, i32 0, i32 21
  %40 = load ptr, ptr %39, align 8, !tbaa !61
  %41 = icmp ne ptr %40, null
  br i1 %41, label %42, label %50

42:                                               ; preds = %35
  %43 = load ptr, ptr %2, align 8, !tbaa !3
  %44 = load ptr, ptr %6, align 8, !tbaa !51
  %45 = getelementptr inbounds nuw %struct.obj_state_s, ptr %44, i32 0, i32 21
  %46 = load ptr, ptr %45, align 8, !tbaa !61
  %47 = call i32 @gvputs_xml(ptr noundef %43, ptr noundef %46)
  %48 = load ptr, ptr %2, align 8, !tbaa !3
  %49 = call i32 @gvputc(ptr noundef %48, i32 noundef 95)
  br label %50

50:                                               ; preds = %42, %35
  %51 = load ptr, ptr %2, align 8, !tbaa !3
  %52 = load i32, ptr %5, align 4, !tbaa !60
  %53 = load double, ptr %3, align 8, !tbaa !121
  %54 = load double, ptr %4, align 8, !tbaa !121
  call void (ptr, ptr, ...) @gvprintf(ptr noundef %51, ptr noundef @.str.105, i32 noundef %52, double noundef %53, double noundef %54)
  %55 = load ptr, ptr %2, align 8, !tbaa !3
  %56 = load ptr, ptr %6, align 8, !tbaa !51
  %57 = getelementptr inbounds nuw %struct.obj_state_s, ptr %56, i32 0, i32 5
  call void @svg_print_stop(ptr noundef %55, double noundef 0.000000e+00, ptr noundef byval(%struct.color_s) align 8 %57)
  %58 = load ptr, ptr %2, align 8, !tbaa !3
  %59 = load ptr, ptr %6, align 8, !tbaa !51
  %60 = getelementptr inbounds nuw %struct.obj_state_s, ptr %59, i32 0, i32 6
  call void @svg_print_stop(ptr noundef %58, double noundef 1.000000e+00, ptr noundef byval(%struct.color_s) align 8 %60)
  %61 = load ptr, ptr %2, align 8, !tbaa !3
  %62 = call i32 @gvputs(ptr noundef %61, ptr noundef @.str.106)
  %63 = load i32, ptr %5, align 4, !tbaa !60
  call void @llvm.lifetime.end.p0(i64 8, ptr %6) #9
  call void @llvm.lifetime.end.p0(i64 4, ptr %5) #9
  call void @llvm.lifetime.end.p0(i64 8, ptr %4) #9
  call void @llvm.lifetime.end.p0(i64 8, ptr %3) #9
  ret i32 %63
}