; Function Attrs: nounwind uwtable
define internal fastcc i32 @svg_rgradstyle(ptr noundef %0) unnamed_addr #0 {
  %2 = load i32, ptr @svg_rgradstyle.rgradId, align 4, !tbaa !108
  %3 = add nsw i32 %2, 1
  store i32 %3, ptr @svg_rgradstyle.rgradId, align 4, !tbaa !108
  %4 = getelementptr inbounds nuw i8, ptr %0, i64 32
  %5 = load ptr, ptr %4, align 8, !tbaa !50
  %6 = getelementptr inbounds nuw i8, ptr %5, i64 152
  %7 = load i32, ptr %6, align 8, !tbaa !109
  %8 = icmp eq i32 %7, 0
  br i1 %8, label %21, label %9

9:                                                ; preds = %1
  %10 = sitofp i32 %7 to double
  %11 = fmul double %10, 0x400921FB54442D18
  %12 = fdiv double %11, 1.800000e+02
  %13 = tail call double @cos(double noundef %12) #11, !tbaa !108
  %14 = fadd double %13, 1.000000e+00
  %15 = fmul double %14, 5.000000e+01
  %16 = tail call double @llvm.round.f64(double %15)
  %17 = tail call double @sin(double noundef %12) #11, !tbaa !108
  %18 = fsub double 1.000000e+00, %17
  %19 = fmul double %18, 5.000000e+01
  %20 = tail call double @llvm.round.f64(double %19)
  br label %21

21:                                               ; preds = %1, %9
  %.019 = phi double [ %20, %9 ], [ 5.000000e+01, %1 ]
  %.0 = phi double [ %16, %9 ], [ 5.000000e+01, %1 ]
  %22 = tail call i32 @gvputs(ptr noundef nonnull %0, ptr noundef nonnull @.str.104) #11
  %23 = getelementptr inbounds nuw i8, ptr %5, i64 256
  %24 = load ptr, ptr %23, align 8, !tbaa !59
  %.not = icmp eq ptr %24, null
  br i1 %.not, label %28, label %25

25:                                               ; preds = %21
  %26 = tail call i32 @gvputs_xml(ptr noundef nonnull %0, ptr noundef nonnull %24) #11
  %27 = tail call i32 @gvputc(ptr noundef nonnull %0, i32 noundef 95) #11
  br label %28

28:                                               ; preds = %25, %21
  tail call void (ptr, ptr, ...) @gvprintf(ptr noundef nonnull %0, ptr noundef nonnull @.str.105, i32 noundef %2, double noundef %.0, double noundef %.019) #11
  %29 = getelementptr inbounds nuw i8, ptr %5, i64 72
  tail call fastcc void @svg_print_stop(ptr noundef nonnull %0, double noundef 0.000000e+00, ptr noundef nonnull byval(%struct.color_s) align 8 %29)
  %30 = getelementptr inbounds nuw i8, ptr %5, i64 112
  tail call fastcc void @svg_print_stop(ptr noundef nonnull %0, double noundef 1.000000e+00, ptr noundef nonnull byval(%struct.color_s) align 8 %30)
  %31 = tail call i32 @gvputs(ptr noundef nonnull %0, ptr noundef nonnull @.str.106) #11
  ret i32 %2
}